; Function Attrs: nounwind uwtable
define hidden zeroext i1 @SDL_WarpMouseGlobal_REAL(float noundef %0, float noundef %1) local_unnamed_addr #0 {
  %3 = load ptr, ptr getelementptr inbounds nuw (i8, ptr @SDL_mouse, i64 48), align 8
  %.not = icmp eq ptr %3, null
  br i1 %.not, label %6, label %4

4:                                                ; preds = %2
  %5 = tail call zeroext i1 %3(float noundef %0, float noundef %1) #13
  br label %8

6:                                                ; preds = %2
  %7 = tail call zeroext i1 (ptr, ...) @SDL_SetError_REAL(ptr noundef nonnull @.str.19) #13
  br label %8

8:                                                ; preds = %6, %4
  %.0 = phi i1 [ %5, %4 ], [ %7, %6 ]
  ret i1 %.0
}